; Function Attrs: mustprogress uwtable
define dso_local noundef zeroext i1 @_ZN4base15DictionaryValue9GetBinaryENS_16BasicStringPieceINSt7__cxx1112basic_stringIcSt11char_traitsIcESaIcEEEEEPPNS_11BinaryValueE(ptr noundef nonnull align 8 dereferenceable(64) %this, ptr %path.coerce0, i64 %path.coerce1, ptr noundef writeonly %out_value) local_unnamed_addr #3 align 2 {
entry:
  %value.i = alloca ptr, align 8
  call void @llvm.lifetime.start.p0(i64 8, ptr nonnull %value.i)
  %call.i = call noundef zeroext i1 @_ZNK4base15DictionaryValue3GetENS_16BasicStringPieceINSt7__cxx1112basic_stringIcSt11char_traitsIcESaIcEEEEEPPKNS_5ValueE(ptr noundef nonnull align 8 dereferenceable(64) %this, ptr %path.coerce0, i64 %path.coerce1, ptr noundef nonnull %value.i)
  br i1 %call.i, label %lor.lhs.false.i, label %_ZNK4base15DictionaryValue9GetBinaryENS_16BasicStringPieceINSt7__cxx1112basic_stringIcSt11char_traitsIcESaIcEEEEEPPKNS_11BinaryValueE.exit

lor.lhs.false.i:                                  ; preds = %entry
  %0 = load ptr, ptr %value.i, align 8
  %type_.i.i = getelementptr inbounds i8, ptr %0, i64 8
  %1 = load i32, ptr %type_.i.i, align 8
  %cmp.i.i = icmp eq i32 %1, 5
  br i1 %cmp.i.i, label %if.end.i, label %_ZNK4base15DictionaryValue9GetBinaryENS_16BasicStringPieceINSt7__cxx1112basic_stringIcSt11char_traitsIcESaIcEEEEEPPKNS_11BinaryValueE.exit

if.end.i:                                         ; preds = %lor.lhs.false.i
  %tobool3.not.i = icmp eq ptr %out_value, null
  br i1 %tobool3.not.i, label %_ZNK4base15DictionaryValue9GetBinaryENS_16BasicStringPieceINSt7__cxx1112basic_stringIcSt11char_traitsIcESaIcEEEEEPPKNS_11BinaryValueE.exit, label %if.then4.i

if.then4.i:                                       ; preds = %if.end.i
  store ptr %0, ptr %out_value, align 8
  br label %_ZNK4base15DictionaryValue9GetBinaryENS_16BasicStringPieceINSt7__cxx1112basic_stringIcSt11char_traitsIcESaIcEEEEEPPKNS_11BinaryValueE.exit

_ZNK4base15DictionaryValue9GetBinaryENS_16BasicStringPieceINSt7__cxx1112basic_stringIcSt11char_traitsIcESaIcEEEEEPPKNS_11BinaryValueE.exit: ; preds = %entry, %lor.lhs.false.i, %if.end.i, %if.then4.i
  %retval.0.i = phi i1 [ false, %lor.lhs.false.i ], [ false, %entry ], [ true, %if.then4.i ], [ true, %if.end.i ]
  call void @llvm.lifetime.end.p0(i64 8, ptr nonnull %value.i)
  ret i1 %retval.0.i
}